Certificate:
    Data:
        Version: 3 (0x2)
        Serial Number:
            3e:c8:b8:a6:00:6e:bc:d1:22:23:61:62:66:d0:c6:be:b5:db:25:8b
        Signature Algorithm: sha256WithRSAEncryption
        Issuer: C=IT, L=Bologna, O=Unibo, OU=Ulisse, CN=out
        Validity
            Not Before: Feb  1 15:50:18 2024 GMT
            Not After : Jan 29 15:50:18 2034 GMT
        Subject: C=IT, L=Bologna, O=Unibo, OU=Ulisse, CN=out
        Subject Public Key Info:
            Public Key Algorithm: rsaEncryption
                Public-Key: (2048 bit)
                Modulus:
                    00:c8:8b:f4:8b:e2:72:77:34:19:0d:ca:a5:db:42:
                    e7:2c:18:03:21:b8:7b:c1:32:0a:d1:ef:73:2c:a6:
                    4d:be:16:1a:e0:f8:31:e9:27:54:b2:87:4a:71:6b:
                    28:91:85:13:7e:95:f3:64:57:b6:c5:c4:6b:ba:d0:
                    e8:97:b9:88:15:3c:04:56:cf:c2:52:38:a5:0f:1f:
                    90:bf:be:87:e0:b1:40:ad:31:a0:64:a9:d4:af:10:
                    67:ed:b0:4a:82:b3:8a:b6:97:5d:9c:15:95:8d:61:
                    1e:ae:01:53:1d:00:90:f9:49:96:c0:54:17:a3:a3:
                    fc:18:39:ee:9e:08:f1:3f:ca:44:b6:41:2a:18:bc:
                    5c:07:2d:a4:57:64:9b:e9:88:93:53:c3:26:0e:03:
                    98:3f:f7:8c:a4:c8:0e:d6:db:fe:59:0a:c1:52:ed:
                    74:89:03:36:44:19:68:c2:ed:c9:24:d3:f7:bf:78:
                    d9:99:98:6b:17:8d:fd:95:c6:f7:dd:70:04:bc:3f:
                    9d:7b:28:84:eb:d9:da:63:58:67:fd:23:e9:78:43:
                    cd:32:05:26:34:10:65:79:a6:0c:5d:0d:76:b2:57:
                    d7:ab:9c:9d:6d:54:0e:9f:9d:2c:f1:48:7d:4c:0b:
                    08:ef:03:6f:39:bd:7f:5f:8e:7c:51:e4:5c:32:8c:
                    fd:15
                Exponent: 65537 (0x10001)
        X509v3 extensions:
            X509v3 Basic Constraints: critical
                CA:FALSE
            X509v3 Key Usage: 
                Digital Signature, Non Repudiation, Key Encipherment, Data Encipherment, Certificate Sign
            X509v3 Extended Key Usage: 
                TLS Web Server Authentication, TLS Web Client Authentication
            X509v3 Subject Alternative Name: 
                URI:urn:MacBook-Pro-2.local:Ulisse:GDS_client, DNS:MacBook-Pro-2.local
            X509v3 Subject Key Identifier: 
                5D:6E:61:73:0B:EA:12:47:41:E0:AB:85:AC:0D:36:FD:0D:67:B2:41
    Signature Algorithm: sha256WithRSAEncryption
    Signature Value:
        60:1a:21:cb:4a:ab:b9:8a:79:63:7a:00:3b:31:6e:c2:14:0b:
        8f:e8:e4:dc:df:89:54:fd:c5:b9:8f:20:d2:05:76:56:31:76:
        33:79:fc:9f:b6:a5:10:45:e1:22:05:a1:e5:a1:a8:8f:5b:b5:
        67:a8:89:e5:ca:d9:fc:55:bb:c8:14:c1:c9:36:cf:74:17:1a:
        24:69:9b:27:30:09:2f:b5:45:96:38:61:18:a1:12:ce:38:73:
        9d:ff:9d:68:94:5b:c7:08:d2:05:e2:a2:e0:8a:03:35:da:66:
        b0:68:e8:ab:93:c9:43:4e:95:a4:11:95:0c:b4:00:f3:04:e0:
        1d:20:a9:4b:84:3a:cf:aa:25:98:07:3c:4e:a8:d3:a1:2d:e6:
        17:00:91:5e:c4:21:d8:5f:0d:d4:e0:5c:11:1d:ad:1c:d7:9d:
        e9:7c:e1:9a:71:49:ab:a3:e6:0f:fd:a9:bf:45:ca:4d:12:0c:
        f1:e1:76:2d:78:8c:4a:d3:59:48:ac:ca:95:3d:c8:31:17:f2:
        6b:e3:be:79:c3:a3:8d:88:00:aa:d0:31:7d:24:f4:40:b3:e9:
        89:5d:77:c6:4d:2b:52:f2:76:1f:f1:9a:a1:e2:7c:12:d5:3d:
        4a:6c:d0:3a:c2:db:4d:43:94:91:ec:43:ee:6e:09:b5:0a:12:
        f2:fe:9c:b5
-----BEGIN CERTIFICATE-----
MIID0jCCArqgAwIBAgIUPsi4pgBuvNEiI2FiZtDGvrXbJYswDQYJKoZIhvcNAQEL
BQAwTjELMAkGA1UEBhMCSVQxEDAOBgNVBAcMB0JvbG9nbmExDjAMBgNVBAoMBVVu
aWJvMQ8wDQYDVQQLDAZVbGlzc2UxDDAKBgNVBAMMA291dDAeFw0yNDAyMDExNTUw
MThaFw0zNDAxMjkxNTUwMThaME4xCzAJBgNVBAYTAklUMRAwDgYDVQQHDAdCb2xv
Z25hMQ4wDAYDVQQKDAVVbmlibzEPMA0GA1UECwwGVWxpc3NlMQwwCgYDVQQDDANv
dXQwggEiMA0GCSqGSIb3DQEBAQUAA4IBDwAwggEKAoIBAQDIi/SL4nJ3NBkNyqXb
QucsGAMhuHvBMgrR73Mspk2+Fhrg+DHpJ1Syh0pxayiRhRN+lfNkV7bFxGu60OiX
uYgVPARWz8JSOKUPH5C/vofgsUCtMaBkqdSvEGftsEqCs4q2l12cFZWNYR6uAVMd
AJD5SZbAVBejo/wYOe6eCPE/ykS2QSoYvFwHLaRXZJvpiJNTwyYOA5g/94ykyA7W
2/5ZCsFS7XSJAzZEGWjC7ckk0/e/eNmZmGsXjf2VxvfdcAS8P517KITr2dpjWGf9
I+l4Q80yBSY0EGV5pgxdDXayV9ernJ1tVA6fnSzxSH1MCwjvA285vX9fjnxR5Fwy
jP0VAgMBAAGjgacwgaQwDAYDVR0TAQH/BAIwADALBgNVHQ8EBAMCAvQwHQYDVR0l
BBYwFAYIKwYBBQUHAwEGCCsGAQUFBwMCMEkGA1UdEQRCMECGKXVybjpNYWNCb29r
LVByby0yLmxvY2FsOlVsaXNzZTpHRFNfY2xpZW50ghNNYWNCb29rLVByby0yLmxv
Y2FsMB0GA1UdDgQWBBRdbmFzC+oSR0Hgq4WsDTb9DWeyQTANBgkqhkiG9w0BAQsF
AAOCAQEAYBohy0qruYp5Y3oAOzFuwhQLj+jk3N+JVP3FuY8g0gV2VjF2M3n8n7al
EEXhIgWh5aGoj1u1Z6iJ5crZ/FW7yBTByTbPdBcaJGmbJzAJL7VFljhhGKESzjhz
nf+daJRbxwjSBeKi4IoDNdpmsGjoq5PJQ06VpBGVDLQA8wTgHSCpS4Q6z6olmAc8
TqjToS3mFwCRXsQh2F8N1OBcER2tHNed6XzhmnFJq6PmD/2pv0XKTRIM8eF2LXiM
StNZSKzKlT3IMRfya+O+ecOjjYgAqtAxfST0QLPpiV13xk0rUvJ2H/GaoeJ8EtU9
SmzQOsLbTUOUkexD7m4JtQoS8v6ctQ==
-----END CERTIFICATE-----
